target datalayout = "e-m:e-p270:32:32-p271:32:32-p272:64:64-i64:64-i128:128-f80:128-n8:16:32:64-S128"
target triple = "x86_64-unknown-linux-gnu"

%class.symbol = type { ptr }
%"class.recfun::solver" = type <{ %"class.euf::th_euf_solver.base", [4 x i8], ptr, ptr, %"struct.recfun::solver::stats", [4 x i8], %class.ref_vector, %class.ref_vector, %class.obj_map, %class.obj_map.5, %class.ref_vector, %class.svector.1, i32, [4 x i8], %class.scoped_ptr_vector, i32, [4 x i8] }>
%"class.euf::th_euf_solver.base" = type <{ %"class.euf::th_solver", ptr, %class.ptr_vector, %class.svector.1, i32 }>
%"class.euf::th_solver" = type { %"class.sat::extension", %"class.euf::th_model_builder", %"class.euf::th_decompile", %"class.euf::th_internalizer", ptr }
%"class.sat::extension" = type { ptr, i8, i32, %class.symbol, ptr }
%"class.euf::th_model_builder" = type { ptr }
%"class.euf::th_decompile" = type { ptr }
%"class.euf::th_internalizer" = type { ptr, %class.ptr_vector, %class.svector }
%class.svector = type { %class.vector.0 }
%class.vector.0 = type { ptr }
%class.ptr_vector = type { %class.vector }
%class.vector = type { ptr }
%"struct.recfun::solver::stats" = type { i32, i32, i32 }
%class.obj_map = type { %class.core_hashtable }
%class.core_hashtable = type <{ ptr, i32, i32, i32, [4 x i8] }>
%class.obj_map.5 = type { %class.core_hashtable.6 }
%class.core_hashtable.6 = type <{ ptr, i32, i32, i32, [4 x i8] }>
%class.ref_vector = type { %class.ref_vector_core }
%class.ref_vector_core = type { %class.ref_manager_wrapper, %class.ptr_vector.3 }
%class.ref_manager_wrapper = type { ptr }
%class.ptr_vector.3 = type { %class.vector.4 }
%class.vector.4 = type { ptr }
%class.svector.1 = type { %class.vector.2 }
%class.vector.2 = type { ptr }
%class.scoped_ptr_vector = type { %class.ptr_vector.10 }
%class.ptr_vector.10 = type { %class.vector.11 }
%class.vector.11 = type { ptr }

@.str.6 = private unnamed_addr constant [23 x i8] c"recfun macro expansion\00", align 1
@.str.7 = private unnamed_addr constant [22 x i8] c"recfun case expansion\00", align 1
@.str.8 = private unnamed_addr constant [22 x i8] c"recfun body expansion\00", align 1

; Function Attrs: mustprogress uwtable
define hidden void @_ZNK6recfun6solver18collect_statisticsER10statistics(ptr noundef nonnull align 8 dereferenceable(268) %this, ptr noundef nonnull align 8 dereferenceable(16) %st) unnamed_addr #5 align 2 {
entry:
  %this.addr = alloca ptr, align 8
  %st.addr = alloca ptr, align 8
  store ptr %this, ptr %this.addr, align 8
  store ptr %st, ptr %st.addr, align 8
  %this1 = load ptr, ptr %this.addr, align 8
  %0 = load ptr, ptr %st.addr, align 8
  %m_stats = getelementptr inbounds %"class.recfun::solver", ptr %this1, i32 0, i32 4
  %m_macro_expansions = getelementptr inbounds %"struct.recfun::solver::stats", ptr %m_stats, i32 0, i32 2
  %1 = load i32, ptr %m_macro_expansions, align 8
  call void @_ZN10statistics6updateEPKcj(ptr noundef nonnull align 8 dereferenceable(16) %0, ptr noundef @.str.6, i32 noundef %1)
  %2 = load ptr, ptr %st.addr, align 8
  %m_stats2 = getelementptr inbounds %"class.recfun::solver", ptr %this1, i32 0, i32 4
  %m_case_expansions = getelementptr inbounds %"struct.recfun::solver::stats", ptr %m_stats2, i32 0, i32 0
  %3 = load i32, ptr %m_case_expansions, align 8
  call void @_ZN10statistics6updateEPKcj(ptr noundef nonnull align 8 dereferenceable(16) %2, ptr noundef @.str.7, i32 noundef %3)
  %4 = load ptr, ptr %st.addr, align 8
  %m_stats3 = getelementptr inbounds %"class.recfun::solver", ptr %this1, i32 0, i32 4
  %m_body_expansions = getelementptr inbounds %"struct.recfun::solver::stats", ptr %m_stats3, i32 0, i32 1
  %5 = load i32, ptr %m_body_expansions, align 4
  call void @_ZN10statistics6updateEPKcj(ptr noundef nonnull align 8 dereferenceable(16) %4, ptr noundef @.str.8, i32 noundef %5)
  ret void
}