; Function Attrs: mustprogress uwtable
define hidden void @_ZNK6recfun6solver18collect_statisticsER10statistics(ptr nocapture noundef nonnull readonly align 8 dereferenceable(268) %this, ptr noundef nonnull align 8 dereferenceable(16) %st) unnamed_addr #3 align 2 {
entry:
  %m_stats = getelementptr inbounds i8, ptr %this, i64 128
  %m_macro_expansions = getelementptr inbounds i8, ptr %this, i64 136
  %0 = load i32, ptr %m_macro_expansions, align 8
  tail call void @_ZN10statistics6updateEPKcj(ptr noundef nonnull align 8 dereferenceable(16) %st, ptr noundef nonnull @.str.6, i32 noundef %0)
  %1 = load i32, ptr %m_stats, align 8
  tail call void @_ZN10statistics6updateEPKcj(ptr noundef nonnull align 8 dereferenceable(16) %st, ptr noundef nonnull @.str.7, i32 noundef %1)
  %m_body_expansions = getelementptr inbounds i8, ptr %this, i64 132
  %2 = load i32, ptr %m_body_expansions, align 4
  tail call void @_ZN10statistics6updateEPKcj(ptr noundef nonnull align 8 dereferenceable(16) %st, ptr noundef nonnull @.str.8, i32 noundef %2)
  ret void
}